target datalayout = "e-m:e-p270:32:32-p271:32:32-p272:64:64-i64:64-i128:128-f80:128-n8:16:32:64-S128"
target triple = "x86_64-pc-linux-gnu"

%struct.PJconsts = type <{ ptr, ptr, ptr, ptr, ptr, ptr, ptr, ptr, ptr, ptr, ptr, ptr, i32, [4 x i8], ptr, ptr, ptr, ptr, ptr, ptr, ptr, ptr, double, double, double, double, double, double, double, double, double, double, double, double, double, double, double, double, double, double, double, double, double, double, i32, i32, i32, i32, i32, i32, i32, i32, i32, i32, i32, [4 x i8], ptr, ptr, ptr, ptr, ptr, ptr, double, double, double, double, double, double, double, double, double, double, double, i32, [4 x i8], [7 x double], i32, [4 x i8], ptr, ptr, double, double, i32, [4 x i8], %"class.std::shared_ptr", i8, [7 x i8], double, i8, [7 x i8], %"class.std::__cxx11::basic_string", %"class.std::__cxx11::basic_string", %"class.std::__cxx11::basic_string", i8, [7 x i8], %"class.std::vector", i32, [4 x i8], %"class.std::vector.3", i32, i8, i8, i8, i8 }>
%"class.std::shared_ptr" = type { %"class.std::__shared_ptr" }
%"class.std::__shared_ptr" = type { ptr, %"class.std::__shared_count" }
%"class.std::__shared_count" = type { ptr }
%"class.std::__cxx11::basic_string" = type { %"struct.std::__cxx11::basic_string<char>::_Alloc_hider", i64, %union.anon }
%"struct.std::__cxx11::basic_string<char>::_Alloc_hider" = type { ptr }
%union.anon = type { i64, [8 x i8] }
%"class.std::vector" = type { %"struct.std::_Vector_base" }
%"struct.std::_Vector_base" = type { %"struct.std::_Vector_base<osgeo::proj::operation::GridDescription, std::allocator<osgeo::proj::operation::GridDescription>>::_Vector_impl" }
%"struct.std::_Vector_base<osgeo::proj::operation::GridDescription, std::allocator<osgeo::proj::operation::GridDescription>>::_Vector_impl" = type { %"struct.std::_Vector_base<osgeo::proj::operation::GridDescription, std::allocator<osgeo::proj::operation::GridDescription>>::_Vector_impl_data" }
%"struct.std::_Vector_base<osgeo::proj::operation::GridDescription, std::allocator<osgeo::proj::operation::GridDescription>>::_Vector_impl_data" = type { ptr, ptr, ptr }
%"class.std::vector.3" = type { %"struct.std::_Vector_base.4" }
%"struct.std::_Vector_base.4" = type { %"struct.std::_Vector_base<PJCoordOperation, std::allocator<PJCoordOperation>>::_Vector_impl" }
%"struct.std::_Vector_base<PJCoordOperation, std::allocator<PJCoordOperation>>::_Vector_impl" = type { %"struct.std::_Vector_base<PJCoordOperation, std::allocator<PJCoordOperation>>::_Vector_impl_data" }
%"struct.std::_Vector_base<PJCoordOperation, std::allocator<PJCoordOperation>>::_Vector_impl_data" = type { ptr, ptr, ptr }
%"struct.(anonymous namespace)::pj_goode_data" = type { ptr, ptr }
%struct.PJ_XY = type { double, double }
%struct.PJ_LP = type { double, double }

; Function Attrs: mustprogress uwtable
define internal { double, double } @_ZL15goode_s_inverse5PJ_XYP8PJconsts(double %0, double %1, ptr noundef %2) #0 {
  %4 = alloca %struct.PJ_LP, align 8
  %5 = alloca %struct.PJ_XY, align 8
  %6 = alloca ptr, align 8
  %7 = alloca ptr, align 8
  %8 = alloca %struct.PJ_LP, align 8
  %9 = alloca %struct.PJ_XY, align 8
  %10 = alloca %struct.PJ_LP, align 8
  %11 = alloca %struct.PJ_XY, align 8
  %12 = getelementptr inbounds { double, double }, ptr %5, i32 0, i32 0
  store double %0, ptr %12, align 8
  %13 = getelementptr inbounds { double, double }, ptr %5, i32 0, i32 1
  store double %1, ptr %13, align 8
  store ptr %2, ptr %6, align 8
  %14 = load ptr, ptr %6, align 8
  %15 = getelementptr inbounds %struct.PJconsts, ptr %14, i32 0, i32 11
  %16 = load ptr, ptr %15, align 8
  store ptr %16, ptr %7, align 8
  %17 = getelementptr inbounds %struct.PJ_XY, ptr %5, i32 0, i32 1
  %18 = load double, ptr %17, align 8
  %19 = call double @llvm.fabs.f64(double %18)
  %20 = fcmp ole double %19, 0x3FE6BFF1E94A3A44
  br i1 %20, label %21, label %39

21:                                               ; preds = %3
  %22 = load ptr, ptr %7, align 8
  %23 = getelementptr inbounds %"struct.(anonymous namespace)::pj_goode_data", ptr %22, i32 0, i32 0
  %24 = load ptr, ptr %23, align 8
  %25 = getelementptr inbounds %struct.PJconsts, ptr %24, i32 0, i32 15
  %26 = load ptr, ptr %25, align 8
  call void @llvm.memcpy.p0.p0.i64(ptr align 8 %9, ptr align 8 %5, i64 16, i1 false)
  %27 = load ptr, ptr %7, align 8
  %28 = getelementptr inbounds %"struct.(anonymous namespace)::pj_goode_data", ptr %27, i32 0, i32 0
  %29 = load ptr, ptr %28, align 8
  %30 = getelementptr inbounds { double, double }, ptr %9, i32 0, i32 0
  %31 = load double, ptr %30, align 8
  %32 = getelementptr inbounds { double, double }, ptr %9, i32 0, i32 1
  %33 = load double, ptr %32, align 8
  %34 = call { double, double } %26(double %31, double %33, ptr noundef %29)
  %35 = getelementptr inbounds { double, double }, ptr %8, i32 0, i32 0
  %36 = extractvalue { double, double } %34, 0
  store double %36, ptr %35, align 8
  %37 = getelementptr inbounds { double, double }, ptr %8, i32 0, i32 1
  %38 = extractvalue { double, double } %34, 1
  store double %38, ptr %37, align 8
  call void @llvm.memcpy.p0.p0.i64(ptr align 8 %4, ptr align 8 %8, i64 16, i1 false)
  br label %64

39:                                               ; preds = %3
  %40 = getelementptr inbounds %struct.PJ_XY, ptr %5, i32 0, i32 1
  %41 = load double, ptr %40, align 8
  %42 = fcmp oge double %41, 0.000000e+00
  %43 = select i1 %42, double 5.280000e-02, double -5.280000e-02
  %44 = getelementptr inbounds %struct.PJ_XY, ptr %5, i32 0, i32 1
  %45 = load double, ptr %44, align 8
  %46 = fadd double %45, %43
  store double %46, ptr %44, align 8
  %47 = load ptr, ptr %7, align 8
  %48 = getelementptr inbounds %"struct.(anonymous namespace)::pj_goode_data", ptr %47, i32 0, i32 1
  %49 = load ptr, ptr %48, align 8
  %50 = getelementptr inbounds %struct.PJconsts, ptr %49, i32 0, i32 15
  %51 = load ptr, ptr %50, align 8
  call void @llvm.memcpy.p0.p0.i64(ptr align 8 %11, ptr align 8 %5, i64 16, i1 false)
  %52 = load ptr, ptr %7, align 8
  %53 = getelementptr inbounds %"struct.(anonymous namespace)::pj_goode_data", ptr %52, i32 0, i32 1
  %54 = load ptr, ptr %53, align 8
  %55 = getelementptr inbounds { double, double }, ptr %11, i32 0, i32 0
  %56 = load double, ptr %55, align 8
  %57 = getelementptr inbounds { double, double }, ptr %11, i32 0, i32 1
  %58 = load double, ptr %57, align 8
  %59 = call { double, double } %51(double %56, double %58, ptr noundef %54)
  %60 = getelementptr inbounds { double, double }, ptr %10, i32 0, i32 0
  %61 = extractvalue { double, double } %59, 0
  store double %61, ptr %60, align 8
  %62 = getelementptr inbounds { double, double }, ptr %10, i32 0, i32 1
  %63 = extractvalue { double, double } %59, 1
  store double %63, ptr %62, align 8
  call void @llvm.memcpy.p0.p0.i64(ptr align 8 %4, ptr align 8 %10, i64 16, i1 false)
  br label %64

64:                                               ; preds = %39, %21
  %65 = load { double, double }, ptr %4, align 8
  ret { double, double } %65
}